target datalayout = "e-m:e-p270:32:32-p271:32:32-p272:64:64-i64:64-i128:128-f80:128-n8:16:32:64-S128"
target triple = "x86_64-pc-linux-gnu"

%struct.AggState = type { %struct.ScanState, ptr, i32, i32, i32, i32, ptr, i32, i32, ptr, ptr, ptr, ptr, ptr, ptr, ptr, ptr, i8, i8, i32, i32, ptr, ptr, ptr, i32, i8, i32, ptr, ptr, ptr, ptr, ptr, ptr, i8, i32, ptr, ptr, ptr, ptr, ptr, ptr, i8, i8, i64, i64, i32, double, i64, i64, i64, i32, ptr, ptr, ptr, ptr }
%struct.ScanState = type { %struct.PlanState, ptr, ptr, ptr }
%struct.PlanState = type { i32, ptr, ptr, ptr, ptr, ptr, ptr, ptr, ptr, ptr, ptr, ptr, ptr, ptr, ptr, ptr, ptr, ptr, i8, ptr, ptr, ptr, ptr, ptr, i8, i8, i8, i8, i8, i8, i8, i8 }
%struct.FmgrInfo = type { ptr, i32, i16, i8, i8, i8, ptr, ptr, ptr }
%struct.AggStatePerTransData = type { ptr, i8, i8, i32, i32, i32, i32, i32, i32, %struct.FmgrInfo, %struct.FmgrInfo, %struct.FmgrInfo, i32, i32, i32, ptr, ptr, ptr, ptr, %struct.FmgrInfo, ptr, i64, i8, i16, i16, i8, i8, ptr, ptr, ptr, i64, i8, i8, ptr, ptr, ptr, ptr }
%struct.SharedAggInfo = type { i32, [0 x %struct.AggregateInstrumentation] }
%struct.AggregateInstrumentation = type { i64, i64, i32 }

@ParallelWorkerNumber = external global i32, align 4

; Function Attrs: nounwind uwtable
define dso_local void @ExecEndAgg(ptr noundef %0) #0 {
  %2 = alloca ptr, align 8
  %3 = alloca ptr, align 8
  %4 = alloca i32, align 4
  %5 = alloca i32, align 4
  %6 = alloca i32, align 4
  %7 = alloca ptr, align 8
  %8 = alloca ptr, align 8
  store ptr %0, ptr %2, align 8
  call void @llvm.lifetime.start.p0(i64 8, ptr %3) #9
  call void @llvm.lifetime.start.p0(i64 4, ptr %4) #9
  call void @llvm.lifetime.start.p0(i64 4, ptr %5) #9
  %9 = load ptr, ptr %2, align 8
  %10 = getelementptr inbounds nuw %struct.AggState, ptr %9, i32 0, i32 26
  %11 = load i32, ptr %10, align 8
  %12 = icmp sgt i32 %11, 1
  br i1 %12, label %13, label %17

13:                                               ; preds = %1
  %14 = load ptr, ptr %2, align 8
  %15 = getelementptr inbounds nuw %struct.AggState, ptr %14, i32 0, i32 26
  %16 = load i32, ptr %15, align 8
  br label %18

17:                                               ; preds = %1
  br label %18

18:                                               ; preds = %17, %13
  %19 = phi i32 [ %16, %13 ], [ 1, %17 ]
  store i32 %19, ptr %5, align 4
  call void @llvm.lifetime.start.p0(i64 4, ptr %6) #9
  %20 = load ptr, ptr %2, align 8
  %21 = getelementptr inbounds nuw %struct.AggState, ptr %20, i32 0, i32 54
  %22 = load ptr, ptr %21, align 8
  %23 = icmp ne ptr %22, null
  br i1 %23, label %24, label %50

24:                                               ; preds = %18
  %25 = load i32, ptr @ParallelWorkerNumber, align 4
  %26 = icmp sge i32 %25, 0
  br i1 %26, label %27, label %50

27:                                               ; preds = %24
  call void @llvm.lifetime.start.p0(i64 8, ptr %7) #9
  %28 = load ptr, ptr %2, align 8
  %29 = getelementptr inbounds nuw %struct.AggState, ptr %28, i32 0, i32 54
  %30 = load ptr, ptr %29, align 8
  %31 = getelementptr inbounds nuw %struct.SharedAggInfo, ptr %30, i32 0, i32 1
  %32 = load i32, ptr @ParallelWorkerNumber, align 4
  %33 = sext i32 %32 to i64
  %34 = getelementptr inbounds [0 x %struct.AggregateInstrumentation], ptr %31, i64 0, i64 %33
  store ptr %34, ptr %7, align 8
  %35 = load ptr, ptr %2, align 8
  %36 = getelementptr inbounds nuw %struct.AggState, ptr %35, i32 0, i32 50
  %37 = load i32, ptr %36, align 8
  %38 = load ptr, ptr %7, align 8
  %39 = getelementptr inbounds nuw %struct.AggregateInstrumentation, ptr %38, i32 0, i32 2
  store i32 %37, ptr %39, align 8
  %40 = load ptr, ptr %2, align 8
  %41 = getelementptr inbounds nuw %struct.AggState, ptr %40, i32 0, i32 49
  %42 = load i64, ptr %41, align 8
  %43 = load ptr, ptr %7, align 8
  %44 = getelementptr inbounds nuw %struct.AggregateInstrumentation, ptr %43, i32 0, i32 1
  store i64 %42, ptr %44, align 8
  %45 = load ptr, ptr %2, align 8
  %46 = getelementptr inbounds nuw %struct.AggState, ptr %45, i32 0, i32 47
  %47 = load i64, ptr %46, align 8
  %48 = load ptr, ptr %7, align 8
  %49 = getelementptr inbounds nuw %struct.AggregateInstrumentation, ptr %48, i32 0, i32 0
  store i64 %47, ptr %49, align 8
  call void @llvm.lifetime.end.p0(i64 8, ptr %7) #9
  br label %50

50:                                               ; preds = %27, %24, %18
  %51 = load ptr, ptr %2, align 8
  %52 = getelementptr inbounds nuw %struct.AggState, ptr %51, i32 0, i32 28
  %53 = load ptr, ptr %52, align 8
  %54 = icmp ne ptr %53, null
  br i1 %54, label %55, label %59

55:                                               ; preds = %50
  %56 = load ptr, ptr %2, align 8
  %57 = getelementptr inbounds nuw %struct.AggState, ptr %56, i32 0, i32 28
  %58 = load ptr, ptr %57, align 8
  call void @tuplesort_end(ptr noundef %58)
  br label %59

59:                                               ; preds = %55, %50
  %60 = load ptr, ptr %2, align 8
  %61 = getelementptr inbounds nuw %struct.AggState, ptr %60, i32 0, i32 29
  %62 = load ptr, ptr %61, align 8
  %63 = icmp ne ptr %62, null
  br i1 %63, label %64, label %68

64:                                               ; preds = %59
  %65 = load ptr, ptr %2, align 8
  %66 = getelementptr inbounds nuw %struct.AggState, ptr %65, i32 0, i32 29
  %67 = load ptr, ptr %66, align 8
  call void @tuplesort_end(ptr noundef %67)
  br label %68

68:                                               ; preds = %64, %59
  %69 = load ptr, ptr %2, align 8
  call void @hashagg_reset_spill_state(ptr noundef %69)
  %70 = load ptr, ptr %2, align 8
  %71 = getelementptr inbounds nuw %struct.AggState, ptr %70, i32 0, i32 35
  %72 = load ptr, ptr %71, align 8
  %73 = icmp ne ptr %72, null
  br i1 %73, label %74, label %80

74:                                               ; preds = %68
  %75 = load ptr, ptr %2, align 8
  %76 = getelementptr inbounds nuw %struct.AggState, ptr %75, i32 0, i32 35
  %77 = load ptr, ptr %76, align 8
  call void @MemoryContextDelete(ptr noundef %77)
  %78 = load ptr, ptr %2, align 8
  %79 = getelementptr inbounds nuw %struct.AggState, ptr %78, i32 0, i32 35
  store ptr null, ptr %79, align 8
  br label %80

80:                                               ; preds = %74, %68
  store i32 0, ptr %4, align 4
  br label %81

81:                                               ; preds = %120, %80
  %82 = load i32, ptr %4, align 4
  %83 = load ptr, ptr %2, align 8
  %84 = getelementptr inbounds nuw %struct.AggState, ptr %83, i32 0, i32 3
  %85 = load i32, ptr %84, align 4
  %86 = icmp slt i32 %82, %85
  br i1 %86, label %87, label %123

87:                                               ; preds = %81
  call void @llvm.lifetime.start.p0(i64 8, ptr %8) #9
  %88 = load ptr, ptr %2, align 8
  %89 = getelementptr inbounds nuw %struct.AggState, ptr %88, i32 0, i32 10
  %90 = load ptr, ptr %89, align 8
  %91 = load i32, ptr %4, align 4
  %92 = sext i32 %91 to i64
  %93 = getelementptr inbounds %struct.AggStatePerTransData, ptr %90, i64 %92
  store ptr %93, ptr %8, align 8
  store i32 0, ptr %6, align 4
  br label %94

94:                                               ; preds = %116, %87
  %95 = load i32, ptr %6, align 4
  %96 = load i32, ptr %5, align 4
  %97 = icmp slt i32 %95, %96
  br i1 %97, label %98, label %119

98:                                               ; preds = %94
  %99 = load ptr, ptr %8, align 8
  %100 = getelementptr inbounds nuw %struct.AggStatePerTransData, ptr %99, i32 0, i32 33
  %101 = load ptr, ptr %100, align 8
  %102 = load i32, ptr %6, align 4
  %103 = sext i32 %102 to i64
  %104 = getelementptr inbounds ptr, ptr %101, i64 %103
  %105 = load ptr, ptr %104, align 8
  %106 = icmp ne ptr %105, null
  br i1 %106, label %107, label %115

107:                                              ; preds = %98
  %108 = load ptr, ptr %8, align 8
  %109 = getelementptr inbounds nuw %struct.AggStatePerTransData, ptr %108, i32 0, i32 33
  %110 = load ptr, ptr %109, align 8
  %111 = load i32, ptr %6, align 4
  %112 = sext i32 %111 to i64
  %113 = getelementptr inbounds ptr, ptr %110, i64 %112
  %114 = load ptr, ptr %113, align 8
  call void @tuplesort_end(ptr noundef %114)
  br label %115

115:                                              ; preds = %107, %98
  br label %116

116:                                              ; preds = %115
  %117 = load i32, ptr %6, align 4
  %118 = add i32 %117, 1
  store i32 %118, ptr %6, align 4
  br label %94, !llvm.loop !30

119:                                              ; preds = %94
  call void @llvm.lifetime.end.p0(i64 8, ptr %8) #9
  br label %120

120:                                              ; preds = %119
  %121 = load i32, ptr %4, align 4
  %122 = add i32 %121, 1
  store i32 %122, ptr %4, align 4
  br label %81, !llvm.loop !31

123:                                              ; preds = %81
  store i32 0, ptr %6, align 4
  br label %124

124:                                              ; preds = %136, %123
  %125 = load i32, ptr %6, align 4
  %126 = load i32, ptr %5, align 4
  %127 = icmp slt i32 %125, %126
  br i1 %127, label %128, label %139

128:                                              ; preds = %124
  %129 = load ptr, ptr %2, align 8
  %130 = getelementptr inbounds nuw %struct.AggState, ptr %129, i32 0, i32 12
  %131 = load ptr, ptr %130, align 8
  %132 = load i32, ptr %6, align 4
  %133 = sext i32 %132 to i64
  %134 = getelementptr inbounds ptr, ptr %131, i64 %133
  %135 = load ptr, ptr %134, align 8
  call void @ReScanExprContext(ptr noundef %135)
  br label %136

136:                                              ; preds = %128
  %137 = load i32, ptr %6, align 4
  %138 = add i32 %137, 1
  store i32 %138, ptr %6, align 4
  br label %124, !llvm.loop !32

139:                                              ; preds = %124
  %140 = load ptr, ptr %2, align 8
  %141 = getelementptr inbounds nuw %struct.AggState, ptr %140, i32 0, i32 11
  %142 = load ptr, ptr %141, align 8
  %143 = icmp ne ptr %142, null
  br i1 %143, label %144, label %148

144:                                              ; preds = %139
  %145 = load ptr, ptr %2, align 8
  %146 = getelementptr inbounds nuw %struct.AggState, ptr %145, i32 0, i32 11
  %147 = load ptr, ptr %146, align 8
  call void @ReScanExprContext(ptr noundef %147)
  br label %148

148:                                              ; preds = %144, %139
  %149 = load ptr, ptr %2, align 8
  %150 = getelementptr inbounds nuw %struct.PlanState, ptr %149, i32 0, i32 9
  %151 = load ptr, ptr %150, align 8
  store ptr %151, ptr %3, align 8
  %152 = load ptr, ptr %3, align 8
  call void @ExecEndNode(ptr noundef %152)
  call void @llvm.lifetime.end.p0(i64 4, ptr %6) #9
  call void @llvm.lifetime.end.p0(i64 4, ptr %5) #9
  call void @llvm.lifetime.end.p0(i64 4, ptr %4) #9
  call void @llvm.lifetime.end.p0(i64 8, ptr %3) #9
  ret void
}