; Function Attrs: nounwind uwtable
define dso_local void @ExecEndAgg(ptr noundef captures(none) %0) local_unnamed_addr #2 {
  %2 = getelementptr inbounds nuw i8, ptr %0, i64 376
  %3 = load i32, ptr %2, align 8
  %4 = getelementptr inbounds nuw i8, ptr %0, i64 584
  %5 = load ptr, ptr %4, align 8
  %6 = icmp ne ptr %5, null
  %7 = load i32, ptr @ParallelWorkerNumber, align 4
  %8 = icmp sgt i32 %7, -1
  %or.cond = select i1 %6, i1 %8, i1 false
  br i1 %or.cond, label %9, label %21

9:                                                ; preds = %1
  %10 = getelementptr inbounds nuw i8, ptr %5, i64 8
  %11 = zext nneg i32 %7 to i64
  %12 = getelementptr inbounds nuw [0 x %struct.AggregateInstrumentation], ptr %10, i64 0, i64 %11
  %13 = getelementptr inbounds nuw i8, ptr %0, i64 552
  %14 = load i32, ptr %13, align 8
  %15 = getelementptr inbounds nuw i8, ptr %12, i64 16
  store i32 %14, ptr %15, align 8
  %16 = getelementptr inbounds nuw i8, ptr %0, i64 544
  %17 = load i64, ptr %16, align 8
  %18 = getelementptr inbounds nuw i8, ptr %12, i64 8
  store i64 %17, ptr %18, align 8
  %19 = getelementptr inbounds nuw i8, ptr %0, i64 528
  %20 = load i64, ptr %19, align 8
  store i64 %20, ptr %12, align 8
  br label %21

21:                                               ; preds = %9, %1
  %22 = getelementptr inbounds nuw i8, ptr %0, i64 392
  %23 = load ptr, ptr %22, align 8
  %.not = icmp eq ptr %23, null
  br i1 %.not, label %25, label %24

24:                                               ; preds = %21
  tail call void @tuplesort_end(ptr noundef nonnull %23) #12
  br label %25

25:                                               ; preds = %24, %21
  %26 = getelementptr inbounds nuw i8, ptr %0, i64 400
  %27 = load ptr, ptr %26, align 8
  %.not48 = icmp eq ptr %27, null
  br i1 %.not48, label %29, label %28

28:                                               ; preds = %25
  tail call void @tuplesort_end(ptr noundef nonnull %27) #12
  br label %29

29:                                               ; preds = %28, %25
  tail call fastcc void @hashagg_reset_spill_state(ptr noundef nonnull %0)
  %30 = getelementptr inbounds nuw i8, ptr %0, i64 440
  %31 = load ptr, ptr %30, align 8
  %.not49 = icmp eq ptr %31, null
  br i1 %.not49, label %33, label %32

32:                                               ; preds = %29
  tail call void @MemoryContextDelete(ptr noundef nonnull %31) #12
  store ptr null, ptr %30, align 8
  br label %33

33:                                               ; preds = %32, %29
  %34 = getelementptr inbounds nuw i8, ptr %0, i64 236
  %35 = load i32, ptr %34, align 4
  %36 = icmp sgt i32 %35, 0
  br i1 %36, label %.lr.ph, label %..preheader_crit_edge

..preheader_crit_edge:                            ; preds = %33
  %.pre = tail call i32 @llvm.smax.i32(i32 %3, i32 1)
  %.pre65 = zext nneg i32 %.pre to i64
  br label %.preheader

.lr.ph:                                           ; preds = %33
  %37 = getelementptr inbounds nuw i8, ptr %0, i64 272
  %smax = tail call i32 @llvm.smax.i32(i32 %3, i32 1)
  %wide.trip.count = zext nneg i32 %smax to i64
  br label %39

.preheader:                                       ; preds = %48, %..preheader_crit_edge
  %wide.trip.count63.pre-phi = phi i64 [ %.pre65, %..preheader_crit_edge ], [ %wide.trip.count, %48 ]
  %38 = getelementptr inbounds nuw i8, ptr %0, i64 288
  br label %52

39:                                               ; preds = %.lr.ph, %48
  %indvars.iv56 = phi i64 [ 0, %.lr.ph ], [ %indvars.iv.next57, %48 ]
  %40 = load ptr, ptr %37, align 8
  %41 = getelementptr inbounds nuw %struct.AggStatePerTransData, ptr %40, i64 %indvars.iv56, i32 33
  br label %42

42:                                               ; preds = %39, %47
  %indvars.iv = phi i64 [ 0, %39 ], [ %indvars.iv.next, %47 ]
  %43 = load ptr, ptr %41, align 8
  %44 = getelementptr inbounds nuw ptr, ptr %43, i64 %indvars.iv
  %45 = load ptr, ptr %44, align 8
  %.not51 = icmp eq ptr %45, null
  br i1 %.not51, label %47, label %46

46:                                               ; preds = %42
  tail call void @tuplesort_end(ptr noundef nonnull %45) #12
  br label %47

47:                                               ; preds = %42, %46
  %indvars.iv.next = add nuw nsw i64 %indvars.iv, 1
  %exitcond.not = icmp eq i64 %indvars.iv.next, %wide.trip.count
  br i1 %exitcond.not, label %48, label %42, !llvm.loop !30

48:                                               ; preds = %47
  %indvars.iv.next57 = add nuw nsw i64 %indvars.iv56, 1
  %49 = load i32, ptr %34, align 4
  %50 = sext i32 %49 to i64
  %51 = icmp slt i64 %indvars.iv.next57, %50
  br i1 %51, label %39, label %.preheader, !llvm.loop !31

52:                                               ; preds = %.preheader, %52
  %indvars.iv59 = phi i64 [ 0, %.preheader ], [ %indvars.iv.next60, %52 ]
  %53 = load ptr, ptr %38, align 8
  %54 = getelementptr inbounds nuw ptr, ptr %53, i64 %indvars.iv59
  %55 = load ptr, ptr %54, align 8
  tail call void @ReScanExprContext(ptr noundef %55) #12
  %indvars.iv.next60 = add nuw nsw i64 %indvars.iv59, 1
  %exitcond64.not = icmp eq i64 %indvars.iv.next60, %wide.trip.count63.pre-phi
  br i1 %exitcond64.not, label %56, label %52, !llvm.loop !32

56:                                               ; preds = %52
  %57 = getelementptr inbounds nuw i8, ptr %0, i64 280
  %58 = load ptr, ptr %57, align 8
  %.not50 = icmp eq ptr %58, null
  br i1 %.not50, label %60, label %59

59:                                               ; preds = %56
  tail call void @ReScanExprContext(ptr noundef nonnull %58) #12
  br label %60

60:                                               ; preds = %59, %56
  %61 = getelementptr inbounds nuw i8, ptr %0, i64 72
  %62 = load ptr, ptr %61, align 8
  tail call void @ExecEndNode(ptr noundef %62) #12
  ret void
}